; ModuleID = 'source-C-CXX/42/1279.cpp'
source_filename = "source-C-CXX/42/1279.cpp"
target datalayout = "e-m:e-p270:32:32-p271:32:32-p272:64:64-i64:64-f80:128-n8:16:32:64-S128"
target triple = "x86_64-pc-linux-gnu"

%"class.std::ios_base::Init" = type { i8 }
%"class.std::basic_istream" = type { i32 (...)**, i64, %"class.std::basic_ios" }
%"class.std::basic_ios" = type { %"class.std::ios_base", %"class.std::basic_ostream"*, i8, i8, %"class.std::basic_streambuf"*, %"class.std::ctype"*, %"class.std::num_put"*, %"class.std::num_get"* }
%"class.std::ios_base" = type { i32 (...)**, i64, i64, i32, i32, i32, %"struct.std::ios_base::_Callback_list"*, %"struct.std::ios_base::_Words", [8 x %"struct.std::ios_base::_Words"], i32, %"struct.std::ios_base::_Words"*, %"class.std::locale" }
%"struct.std::ios_base::_Callback_list" = type { %"struct.std::ios_base::_Callback_list"*, void (i32, %"class.std::ios_base"*, i32)*, i32, i32 }
%"struct.std::ios_base::_Words" = type { i8*, i64 }
%"class.std::locale" = type { %"class.std::locale::_Impl"* }
%"class.std::locale::_Impl" = type { i32, %"class.std::locale::facet"**, i64, %"class.std::locale::facet"**, i8** }
%"class.std::locale::facet" = type <{ i32 (...)**, i32, [4 x i8] }>
%"class.std::basic_ostream" = type { i32 (...)**, %"class.std::basic_ios" }
%"class.std::basic_streambuf" = type { i32 (...)**, i8*, i8*, i8*, i8*, i8*, i8*, %"class.std::locale" }
%"class.std::ctype" = type <{ %"class.std::locale::facet.base", [4 x i8], %struct.__locale_struct*, i8, [7 x i8], i32*, i32*, i16*, i8, [256 x i8], [256 x i8], i8, [6 x i8] }>
%"class.std::locale::facet.base" = type <{ i32 (...)**, i32 }>
%struct.__locale_struct = type { [13 x %struct.__locale_data*], i16*, i32*, i32*, [13 x i8*] }
%struct.__locale_data = type opaque
%"class.std::num_put" = type { %"class.std::locale::facet.base", [4 x i8] }
%"class.std::num_get" = type { %"class.std::locale::facet.base", [4 x i8] }

@_ZStL8__ioinit = internal global %"class.std::ios_base::Init" zeroinitializer, align 1
@__dso_handle = external hidden global i8
@_ZSt3cin = external global %"class.std::basic_istream", align 8
@_ZSt4cout = external global %"class.std::basic_ostream", align 8
@llvm.global_ctors = appending global [1 x { i32, void ()*, i8* }] [{ i32, void ()*, i8* } { i32 65535, void ()* @_GLOBAL__sub_I_1279.cpp, i8* null }]

declare void @_ZNSt8ios_base4InitC1Ev(%"class.std::ios_base::Init"* nonnull align 1 dereferenceable(1)) unnamed_addr #0

; Function Attrs: nounwind
declare void @_ZNSt8ios_base4InitD1Ev(%"class.std::ios_base::Init"* nonnull align 1 dereferenceable(1)) unnamed_addr #1

; Function Attrs: nofree nounwind
declare i32 @__cxa_atexit(void (i8*)*, i8*, i8*) local_unnamed_addr #2

; Function Attrs: mustprogress norecurse sspstrong uwtable
define dso_local i32 @main() local_unnamed_addr #3 {
  %1 = alloca i8, align 1
  %2 = alloca i32, align 4
  %3 = bitcast i32* %2 to i8*
  call void @llvm.lifetime.start.p0i8(i64 4, i8* nonnull %3) #8
  %4 = call nonnull align 8 dereferenceable(16) %"class.std::basic_istream"* @_ZNSirsERi(%"class.std::basic_istream"* nonnull align 8 dereferenceable(16) @_ZSt3cin, i32* nonnull align 4 dereferenceable(4) %2)
  %5 = load i32, i32* %2, align 4, !tbaa !5
  %6 = icmp slt i32 %5, 6
  br i1 %6, label %123, label %7

7:                                                ; preds = %0, %117
  %8 = phi i32 [ %122, %117 ], [ 0, %0 ]
  %9 = phi i32 [ %118, %117 ], [ %5, %0 ]
  %10 = phi i32 [ %119, %117 ], [ 3, %0 ]
  %11 = add i32 %8, 1
  %12 = call i32 @llvm.umax.i32(i32 %11, i32 3)
  %13 = add nsw i32 %12, -2
  %14 = icmp ugt i32 %10, 5
  br i1 %14, label %15, label %29

15:                                               ; preds = %7
  %16 = and i32 %12, 1
  %17 = icmp ult i32 %11, 4
  br i1 %17, label %20, label %18

18:                                               ; preds = %15
  %19 = and i32 %13, -2
  br label %39

20:                                               ; preds = %39, %15
  %21 = phi i32 [ undef, %15 ], [ %49, %39 ]
  %22 = phi i32 [ 1, %15 ], [ %49, %39 ]
  %23 = phi i32 [ 2, %15 ], [ %50, %39 ]
  %24 = icmp eq i32 %16, 0
  br i1 %24, label %29, label %25

25:                                               ; preds = %20
  %26 = urem i32 %10, %23
  %27 = icmp eq i32 %26, 0
  %28 = select i1 %27, i32 0, i32 %22
  br label %29

29:                                               ; preds = %25, %20, %7
  %30 = phi i32 [ 1, %7 ], [ %21, %20 ], [ %28, %25 ]
  %31 = sub nsw i32 %9, %10
  %32 = icmp sgt i32 %31, 5
  br i1 %32, label %33, label %77

33:                                               ; preds = %29
  %34 = lshr i32 %31, 1
  %35 = icmp eq i32 %34, 3
  br i1 %35, label %67, label %36

36:                                               ; preds = %33
  %37 = add nsw i32 %34, -2
  %38 = and i32 %37, -2
  br label %53

39:                                               ; preds = %39, %18
  %40 = phi i32 [ 1, %18 ], [ %49, %39 ]
  %41 = phi i32 [ 2, %18 ], [ %50, %39 ]
  %42 = phi i32 [ %19, %18 ], [ %51, %39 ]
  %43 = urem i32 %10, %41
  %44 = icmp eq i32 %43, 0
  %45 = or i32 %41, 1
  %46 = urem i32 %10, %45
  %47 = icmp eq i32 %46, 0
  %48 = select i1 %47, i1 true, i1 %44
  %49 = select i1 %48, i32 0, i32 %40
  %50 = add nuw nsw i32 %41, 2
  %51 = add i32 %42, -2
  %52 = icmp eq i32 %51, 0
  br i1 %52, label %20, label %39, !llvm.loop !9

53:                                               ; preds = %53, %36
  %54 = phi i32 [ 1, %36 ], [ %63, %53 ]
  %55 = phi i32 [ 2, %36 ], [ %64, %53 ]
  %56 = phi i32 [ %38, %36 ], [ %65, %53 ]
  %57 = srem i32 %31, %55
  %58 = icmp eq i32 %57, 0
  %59 = or i32 %55, 1
  %60 = srem i32 %31, %59
  %61 = icmp eq i32 %60, 0
  %62 = select i1 %61, i1 true, i1 %58
  %63 = select i1 %62, i32 0, i32 %54
  %64 = add nuw nsw i32 %55, 2
  %65 = add i32 %56, -2
  %66 = icmp eq i32 %65, 0
  br i1 %66, label %67, label %53, !llvm.loop !11

67:                                               ; preds = %53, %33
  %68 = phi i32 [ undef, %33 ], [ %63, %53 ]
  %69 = phi i32 [ 1, %33 ], [ %63, %53 ]
  %70 = phi i32 [ 2, %33 ], [ %64, %53 ]
  %71 = and i32 %31, 2
  %72 = icmp eq i32 %71, 0
  br i1 %72, label %77, label %73

73:                                               ; preds = %67
  %74 = srem i32 %31, %70
  %75 = icmp eq i32 %74, 0
  %76 = select i1 %75, i32 0, i32 %69
  br label %77

77:                                               ; preds = %73, %67, %29
  %78 = phi i32 [ 1, %29 ], [ %68, %67 ], [ %76, %73 ]
  %79 = mul nsw i32 %78, %30
  %80 = icmp eq i32 %79, 0
  br i1 %80, label %117, label %81

81:                                               ; preds = %77
  %82 = call nonnull align 8 dereferenceable(8) %"class.std::basic_ostream"* @_ZNSolsEi(%"class.std::basic_ostream"* nonnull align 8 dereferenceable(8) @_ZSt4cout, i32 %10)
  call void @llvm.lifetime.start.p0i8(i64 1, i8* nonnull %1)
  store i8 32, i8* %1, align 1, !tbaa !12
  %83 = call nonnull align 8 dereferenceable(8) %"class.std::basic_ostream"* @_ZSt16__ostream_insertIcSt11char_traitsIcEERSt13basic_ostreamIT_T0_ES6_PKS3_l(%"class.std::basic_ostream"* nonnull align 8 dereferenceable(8) %82, i8* nonnull %1, i64 1)
  call void @llvm.lifetime.end.p0i8(i64 1, i8* nonnull %1)
  %84 = load i32, i32* %2, align 4, !tbaa !5
  %85 = sub nsw i32 %84, %10
  %86 = call nonnull align 8 dereferenceable(8) %"class.std::basic_ostream"* @_ZNSolsEi(%"class.std::basic_ostream"* nonnull align 8 dereferenceable(8) %83, i32 %85)
  %87 = bitcast %"class.std::basic_ostream"* %86 to i8**
  %88 = load i8*, i8** %87, align 8, !tbaa !13
  %89 = getelementptr i8, i8* %88, i64 -24
  %90 = bitcast i8* %89 to i64*
  %91 = load i64, i64* %90, align 8
  %92 = bitcast %"class.std::basic_ostream"* %86 to i8*
  %93 = add nsw i64 %91, 240
  %94 = getelementptr inbounds i8, i8* %92, i64 %93
  %95 = bitcast i8* %94 to %"class.std::ctype"**
  %96 = load %"class.std::ctype"*, %"class.std::ctype"** %95, align 8, !tbaa !15
  %97 = icmp eq %"class.std::ctype"* %96, null
  br i1 %97, label %98, label %99

98:                                               ; preds = %81
  call void @_ZSt16__throw_bad_castv() #9
  unreachable

99:                                               ; preds = %81
  %100 = getelementptr inbounds %"class.std::ctype", %"class.std::ctype"* %96, i64 0, i32 8
  %101 = load i8, i8* %100, align 8, !tbaa !19
  %102 = icmp eq i8 %101, 0
  br i1 %102, label %106, label %103

103:                                              ; preds = %99
  %104 = getelementptr inbounds %"class.std::ctype", %"class.std::ctype"* %96, i64 0, i32 9, i64 10
  %105 = load i8, i8* %104, align 1, !tbaa !12
  br label %112

106:                                              ; preds = %99
  call void @_ZNKSt5ctypeIcE13_M_widen_initEv(%"class.std::ctype"* nonnull align 8 dereferenceable(570) %96)
  %107 = bitcast %"class.std::ctype"* %96 to i8 (%"class.std::ctype"*, i8)***
  %108 = load i8 (%"class.std::ctype"*, i8)**, i8 (%"class.std::ctype"*, i8)*** %107, align 8, !tbaa !13
  %109 = getelementptr inbounds i8 (%"class.std::ctype"*, i8)*, i8 (%"class.std::ctype"*, i8)** %108, i64 6
  %110 = load i8 (%"class.std::ctype"*, i8)*, i8 (%"class.std::ctype"*, i8)** %109, align 8
  %111 = call signext i8 %110(%"class.std::ctype"* nonnull align 8 dereferenceable(570) %96, i8 signext 10)
  br label %112

112:                                              ; preds = %103, %106
  %113 = phi i8 [ %105, %103 ], [ %111, %106 ]
  %114 = call nonnull align 8 dereferenceable(8) %"class.std::basic_ostream"* @_ZNSo3putEc(%"class.std::basic_ostream"* nonnull align 8 dereferenceable(8) %86, i8 signext %113)
  %115 = call nonnull align 8 dereferenceable(8) %"class.std::basic_ostream"* @_ZNSo5flushEv(%"class.std::basic_ostream"* nonnull align 8 dereferenceable(8) %114)
  %116 = load i32, i32* %2, align 4, !tbaa !5
  br label %117

117:                                              ; preds = %77, %112
  %118 = phi i32 [ %9, %77 ], [ %116, %112 ]
  %119 = add nuw nsw i32 %10, 2
  %120 = sdiv i32 %118, 2
  %121 = icmp sgt i32 %119, %120
  %122 = add i32 %8, 1
  br i1 %121, label %123, label %7, !llvm.loop !21

123:                                              ; preds = %117, %0
  call void @llvm.lifetime.end.p0i8(i64 4, i8* nonnull %3) #8
  ret i32 0
}

; Function Attrs: argmemonly mustprogress nofree nosync nounwind willreturn
declare void @llvm.lifetime.start.p0i8(i64 immarg, i8* nocapture) #4

declare nonnull align 8 dereferenceable(16) %"class.std::basic_istream"* @_ZNSirsERi(%"class.std::basic_istream"* nonnull align 8 dereferenceable(16), i32* nonnull align 4 dereferenceable(4)) local_unnamed_addr #0

declare nonnull align 8 dereferenceable(8) %"class.std::basic_ostream"* @_ZNSolsEi(%"class.std::basic_ostream"* nonnull align 8 dereferenceable(8), i32) local_unnamed_addr #0

; Function Attrs: argmemonly mustprogress nofree nosync nounwind willreturn
declare void @llvm.lifetime.end.p0i8(i64 immarg, i8* nocapture) #4

declare nonnull align 8 dereferenceable(8) %"class.std::basic_ostream"* @_ZSt16__ostream_insertIcSt11char_traitsIcEERSt13basic_ostreamIT_T0_ES6_PKS3_l(%"class.std::basic_ostream"* nonnull align 8 dereferenceable(8), i8*, i64) local_unnamed_addr #0

declare nonnull align 8 dereferenceable(8) %"class.std::basic_ostream"* @_ZNSo3putEc(%"class.std::basic_ostream"* nonnull align 8 dereferenceable(8), i8 signext) local_unnamed_addr #0

declare nonnull align 8 dereferenceable(8) %"class.std::basic_ostream"* @_ZNSo5flushEv(%"class.std::basic_ostream"* nonnull align 8 dereferenceable(8)) local_unnamed_addr #0

; Function Attrs: noreturn
declare void @_ZSt16__throw_bad_castv() local_unnamed_addr #5

declare void @_ZNKSt5ctypeIcE13_M_widen_initEv(%"class.std::ctype"* nonnull align 8 dereferenceable(570)) local_unnamed_addr #0

; Function Attrs: sspstrong uwtable
define internal void @_GLOBAL__sub_I_1279.cpp() #6 section ".text.startup" {
  tail call void @_ZNSt8ios_base4InitC1Ev(%"class.std::ios_base::Init"* nonnull align 1 dereferenceable(1) @_ZStL8__ioinit)
  %1 = tail call i32 @__cxa_atexit(void (i8*)* bitcast (void (%"class.std::ios_base::Init"*)* @_ZNSt8ios_base4InitD1Ev to void (i8*)*), i8* getelementptr inbounds (%"class.std::ios_base::Init", %"class.std::ios_base::Init"* @_ZStL8__ioinit, i64 0, i32 0), i8* nonnull @__dso_handle) #8
  ret void
}

; Function Attrs: nofree nosync nounwind readnone speculatable willreturn
declare i32 @llvm.umax.i32(i32, i32) #7


!llvm.module.flags = !{!0, !1, !2, !3}
!llvm.ident = !{!4}

!0 = !{i32 1, !"wchar_size", i32 4}
!1 = !{i32 7, !"PIC Level", i32 2}
!2 = !{i32 7, !"PIE Level", i32 2}
!3 = !{i32 7, !"uwtable", i32 1}
!4 = !{!"clang version 13.0.0"}
!5 = !{!6, !6, i64 0}
!6 = !{!"int", !7, i64 0}
!7 = !{!"omnipotent char", !8, i64 0}
!8 = !{!"Simple C++ TBAA"}
!9 = distinct !{!9, !10}
!10 = !{!"llvm.loop.mustprogress"}
!11 = distinct !{!11, !10}
!12 = !{!7, !7, i64 0}
!13 = !{!14, !14, i64 0}
!14 = !{!"vtable pointer", !8, i64 0}
!15 = !{!16, !17, i64 240}
!16 = !{!"_ZTSSt9basic_iosIcSt11char_traitsIcEE", !17, i64 216, !7, i64 224, !18, i64 225, !17, i64 232, !17, i64 240, !17, i64 248, !17, i64 256}
!17 = !{!"any pointer", !7, i64 0}
!18 = !{!"bool", !7, i64 0}
!19 = !{!20, !7, i64 56}
!20 = !{!"_ZTSSt5ctypeIcE", !17, i64 16, !18, i64 24, !17, i64 32, !17, i64 40, !17, i64 48, !7, i64 56, !7, i64 57, !7, i64 313, !7, i64 569}
!21 = distinct !{!21, !10}
